GAS LISTING C:\Users\letic\AppData\Local\Temp\ccreX2PD.s 			page 1


   1               		.file	"main.cpp"
   2               	__SP_H__ = 0x3e
   3               	__SP_L__ = 0x3d
   4               	__SREG__ = 0x3f
   5               	__tmp_reg__ = 0
   6               	__zero_reg__ = 1
   7               		.text
   8               		.section	.text._Z7getTickv,"ax",@progbits
   9               		.weak	_Z7getTickv
  11               	_Z7getTickv:
  12               	/* prologue: function */
  13               	/* frame size = 0 */
  14               	/* stack size = 0 */
  15               	.L__stack_usage = 0
  16 0000 60E0      		ldi r22,0
  17 0002 70E0      		ldi r23,0
  18 0004 CB01      		movw r24,r22
  19               	/* epilogue start */
  20 0006 0895      		ret
  22               		.section	.text._Z9uartBeginmm,"ax",@progbits
  23               	.global	_Z9uartBeginmm
  25               	_Z9uartBeginmm:
  26 0000 CF93      		push r28
  27 0002 DF93      		push r29
  28 0004 CDB7      		in r28,__SP_L__
  29 0006 DEB7      		in r29,__SP_H__
  30 0008 2897      		sbiw r28,8
  31 000a 0FB6      		in __tmp_reg__,__SREG__
  32 000c F894      		cli
  33 000e DEBF      		out __SP_H__,r29
  34 0010 0FBE      		out __SREG__,__tmp_reg__
  35 0012 CDBF      		out __SP_L__,r28
  36               	/* prologue: function */
  37               	/* frame size = 8 */
  38               	/* stack size = 10 */
  39               	.L__stack_usage = 10
  40 0014 6D83      		std Y+5,r22
  41 0016 7E83      		std Y+6,r23
  42 0018 8F83      		std Y+7,r24
  43 001a 9887      		std Y+8,r25
  44 001c DA01      		movw r26,r20
  45 001e C901      		movw r24,r18
  46 0020 6894      		set
  47 0022 13F8      		bld __zero_reg__,4-1
  48               		1:
  49 0024 B695      		lsr r27
  50 0026 A795      		ror r26
  51 0028 9795      		ror r25
  52 002a 8795      		ror r24
  53 002c 1694      		lsr __zero_reg__
  54 002e 01F4      		brne 1b
  55 0030 8983      		std Y+1,r24
  56 0032 9A83      		std Y+2,r25
  57 0034 AB83      		std Y+3,r26
  58 0036 BC83      		std Y+4,r27
  59 0038 BC01      		movw r22,r24
  60 003a CD01      		movw r24,r26
GAS LISTING C:\Users\letic\AppData\Local\Temp\ccreX2PD.s 			page 2


  61 003c 2D81      		ldd r18,Y+5
  62 003e 3E81      		ldd r19,Y+6
  63 0040 4F81      		ldd r20,Y+7
  64 0042 5885      		ldd r21,Y+8
  65 0044 0E94 0000 		call __udivmodsi4
  66 0048 2150      		subi r18,1
  67 004a 3109      		sbc r19,__zero_reg__
  68 004c 3093 C500 		sts 197,r19
  69 0050 2093 C400 		sts 196,r18
  70 0054 1092 C000 		sts 192,__zero_reg__
  71 0058 88E1      		ldi r24,lo8(24)
  72 005a 8093 C100 		sts 193,r24
  73 005e 86E0      		ldi r24,lo8(6)
  74 0060 8093 C200 		sts 194,r24
  75               	/* epilogue start */
  76 0064 2896      		adiw r28,8
  77 0066 0FB6      		in __tmp_reg__,__SREG__
  78 0068 F894      		cli
  79 006a DEBF      		out __SP_H__,r29
  80 006c 0FBE      		out __SREG__,__tmp_reg__
  81 006e CDBF      		out __SP_L__,r28
  82 0070 DF91      		pop r29
  83 0072 CF91      		pop r28
  84 0074 0895      		ret
  86               		.section	.text._Z8uartTxOkv,"ax",@progbits
  87               	.global	_Z8uartTxOkv
  89               	_Z8uartTxOkv:
  90               	/* prologue: function */
  91               	/* frame size = 0 */
  92               	/* stack size = 0 */
  93               	.L__stack_usage = 0
  94 0000 8091 C000 		lds r24,192
  95 0004 8072      		andi r24,lo8(32)
  96               	/* epilogue start */
  97 0006 0895      		ret
  99               		.section	.text._Z6uartTxh,"ax",@progbits
 100               	.global	_Z6uartTxh
 102               	_Z6uartTxh:
 103               	/* prologue: function */
 104               	/* frame size = 0 */
 105               	/* stack size = 0 */
 106               	.L__stack_usage = 0
 107 0000 8093 C600 		sts 198,r24
 108               	/* epilogue start */
 109 0004 0895      		ret
 111               		.section	.text._Z10uartStringPKc,"ax",@progbits
 112               	.global	_Z10uartStringPKc
 114               	_Z10uartStringPKc:
 115               	/* prologue: function */
 116               	/* frame size = 0 */
 117               	/* stack size = 0 */
 118               	.L__stack_usage = 0
 119 0000 E82F      		mov r30,r24
 120 0002 F92F      		mov r31,r25
 121 0004 8081      		ld r24,Z
 122 0006 8823      		tst r24
 123 0008 01F0      		breq .L5
GAS LISTING C:\Users\letic\AppData\Local\Temp\ccreX2PD.s 			page 3


 124 000a 3196      		adiw r30,1
 125 000c A6EC      		ldi r26,lo8(-58)
 126 000e B0E0      		ldi r27,0
 127               	.L7:
 128 0010 8C93      		st X,r24
 129 0012 8191      		ld r24,Z+
 130 0014 8111      		cpse r24,__zero_reg__
 131 0016 00C0      		rjmp .L7
 132               	.L5:
 133               	/* epilogue start */
 134 0018 0895      		ret
 136               		.section	.text._Z8uartRxOkv,"ax",@progbits
 137               	.global	_Z8uartRxOkv
 139               	_Z8uartRxOkv:
 140               	/* prologue: function */
 141               	/* frame size = 0 */
 142               	/* stack size = 0 */
 143               	.L__stack_usage = 0
 144 0000 8091 C000 		lds r24,192
 145 0004 8078      		andi r24,lo8(-128)
 146               	/* epilogue start */
 147 0006 0895      		ret
 149               		.section	.text._Z6uartRxv,"ax",@progbits
 150               	.global	_Z6uartRxv
 152               	_Z6uartRxv:
 153               	/* prologue: function */
 154               	/* frame size = 0 */
 155               	/* stack size = 0 */
 156               	.L__stack_usage = 0
 157 0000 8091 C600 		lds r24,198
 158               	/* epilogue start */
 159 0004 0895      		ret
 161               		.section	.text._Z9uartIntRxh,"ax",@progbits
 162               	.global	_Z9uartIntRxh
 164               	_Z9uartIntRxh:
 165               	/* prologue: function */
 166               	/* frame size = 0 */
 167               	/* stack size = 0 */
 168               	.L__stack_usage = 0
 169 0000 8823      		tst r24
 170 0002 01F0      		breq .L12
 171 0004 E1EC      		ldi r30,lo8(-63)
 172 0006 F0E0      		ldi r31,0
 173 0008 8081      		ld r24,Z
 174 000a 8068      		ori r24,lo8(-128)
 175 000c 8083      		st Z,r24
 176 000e 0895      		ret
 177               	.L12:
 178 0010 E1EC      		ldi r30,lo8(-63)
 179 0012 F0E0      		ldi r31,0
 180 0014 8081      		ld r24,Z
 181 0016 8F77      		andi r24,lo8(127)
 182 0018 8083      		st Z,r24
 183               	/* epilogue start */
 184 001a 0895      		ret
 186               		.section	.rodata.main.str1.1,"aMS",@progbits,1
 187               	.LC0:
GAS LISTING C:\Users\letic\AppData\Local\Temp\ccreX2PD.s 			page 4


 188 0000 456E 7669 		.string	"Envie caracter\r\n"
 188      6520 6361 
 188      7261 6374 
 188      6572 0D0A 
 188      00
 189               		.section	.text.main,"ax",@progbits
 190               	.global	main
 192               	main:
 193               	/* prologue: function */
 194               	/* frame size = 0 */
 195               	/* stack size = 0 */
 196               	.L__stack_usage = 0
 197 0000 259A      		sbi 0x4,5
 198 0002 2D9A      		sbi 0x5,5
 199 0004 1092 C500 		sts 197,__zero_reg__
 200 0008 87E6      		ldi r24,lo8(103)
 201 000a 8093 C400 		sts 196,r24
 202 000e 1092 C000 		sts 192,__zero_reg__
 203 0012 88E1      		ldi r24,lo8(24)
 204 0014 8093 C100 		sts 193,r24
 205 0018 86E0      		ldi r24,lo8(6)
 206 001a 8093 C200 		sts 194,r24
 207 001e 80E0      		ldi r24,lo8(.LC0)
 208 0020 90E0      		ldi r25,hi8(.LC0)
 209 0022 0E94 0000 		call _Z10uartStringPKc
 210 0026 81E0      		ldi r24,lo8(1)
 211 0028 0E94 0000 		call _Z9uartIntRxh
 212               	/* #APP */
 213               	 ;  43 "main.cpp" 1
 214 002c 7894      		sei
 215               	 ;  0 "" 2
 216               	/* #NOAPP */
 217               	.L15:
 218 002e 00C0      		rjmp .L15
 220               		.section	.text._Z9uartIntTxh,"ax",@progbits
 221               	.global	_Z9uartIntTxh
 223               	_Z9uartIntTxh:
 224               	/* prologue: function */
 225               	/* frame size = 0 */
 226               	/* stack size = 0 */
 227               	.L__stack_usage = 0
 228 0000 8823      		tst r24
 229 0002 01F0      		breq .L17
 230 0004 E1EC      		ldi r30,lo8(-63)
 231 0006 F0E0      		ldi r31,0
 232 0008 8081      		ld r24,Z
 233 000a 8064      		ori r24,lo8(64)
 234 000c 8083      		st Z,r24
 235 000e 0895      		ret
 236               	.L17:
 237 0010 E1EC      		ldi r30,lo8(-63)
 238 0012 F0E0      		ldi r31,0
 239 0014 8081      		ld r24,Z
 240 0016 8F7B      		andi r24,lo8(-65)
 241 0018 8083      		st Z,r24
 242               	/* epilogue start */
 243 001a 0895      		ret
GAS LISTING C:\Users\letic\AppData\Local\Temp\ccreX2PD.s 			page 5


 245               		.section	.text.__vector_18,"ax",@progbits
 246               	.global	__vector_18
 248               	__vector_18:
 249 0000 1F92      		push r1
 250 0002 0F92      		push r0
 251 0004 0FB6      		in r0,__SREG__
 252 0006 0F92      		push r0
 253 0008 1124      		clr __zero_reg__
 254 000a 2F93      		push r18
 255 000c 3F93      		push r19
 256 000e 4F93      		push r20
 257 0010 5F93      		push r21
 258 0012 6F93      		push r22
 259 0014 7F93      		push r23
 260 0016 8F93      		push r24
 261 0018 9F93      		push r25
 262 001a AF93      		push r26
 263 001c BF93      		push r27
 264 001e EF93      		push r30
 265 0020 FF93      		push r31
 266               	/* prologue: Signal */
 267               	/* frame size = 0 */
 268               	/* stack size = 15 */
 269               	.L__stack_usage = 15
 270 0022 8091 C600 		lds r24,198
 271 0026 8C34      		cpi r24,lo8(76)
 272 0028 01F0      		breq .L22
 273 002a 8434      		cpi r24,lo8(68)
 274 002c 01F0      		breq .L23
 275               	.L19:
 276               	/* epilogue start */
 277 002e FF91      		pop r31
 278 0030 EF91      		pop r30
 279 0032 BF91      		pop r27
 280 0034 AF91      		pop r26
 281 0036 9F91      		pop r25
 282 0038 8F91      		pop r24
 283 003a 7F91      		pop r23
 284 003c 6F91      		pop r22
 285 003e 5F91      		pop r21
 286 0040 4F91      		pop r20
 287 0042 3F91      		pop r19
 288 0044 2F91      		pop r18
 289 0046 0F90      		pop r0
 290 0048 0FBE      		out __SREG__,r0
 291 004a 0F90      		pop r0
 292 004c 1F90      		pop r1
 293 004e 1895      		reti
 294               	.L22:
 295 0050 81E0      		ldi r24,lo8(1)
 296 0052 0E94 0000 		call _Z9uartIntTxh
 297 0056 81E0      		ldi r24,lo8(1)
 298 0058 90E0      		ldi r25,0
 299 005a 9093 0000 		sts flagONN+1,r25
 300 005e 8093 0000 		sts flagONN,r24
 301 0062 2D9A      		sbi 0x5,5
 302 0064 00C0      		rjmp .L19
GAS LISTING C:\Users\letic\AppData\Local\Temp\ccreX2PD.s 			page 6


 303               	.L23:
 304 0066 81E0      		ldi r24,lo8(1)
 305 0068 0E94 0000 		call _Z9uartIntTxh
 306 006c 81E0      		ldi r24,lo8(1)
 307 006e 90E0      		ldi r25,0
 308 0070 9093 0000 		sts flagOFF+1,r25
 309 0074 8093 0000 		sts flagOFF,r24
 310 0078 2D98      		cbi 0x5,5
 311 007a 00C0      		rjmp .L19
 313               		.section	.rodata.__vector_20.str1.1,"aMS",@progbits,1
 314               	.LC1:
 315 0000 6F6E 0D0A 		.string	"on\r\n"
 315      00
 316               	.LC2:
 317 0005 6F66 0D0A 		.string	"of\r\n"
 317      00
 318               		.section	.text.__vector_20,"ax",@progbits
 319               	.global	__vector_20
 321               	__vector_20:
 322 0000 1F92      		push r1
 323 0002 0F92      		push r0
 324 0004 0FB6      		in r0,__SREG__
 325 0006 0F92      		push r0
 326 0008 1124      		clr __zero_reg__
 327 000a 2F93      		push r18
 328 000c 3F93      		push r19
 329 000e 4F93      		push r20
 330 0010 5F93      		push r21
 331 0012 6F93      		push r22
 332 0014 7F93      		push r23
 333 0016 8F93      		push r24
 334 0018 9F93      		push r25
 335 001a AF93      		push r26
 336 001c BF93      		push r27
 337 001e EF93      		push r30
 338 0020 FF93      		push r31
 339               	/* prologue: Signal */
 340               	/* frame size = 0 */
 341               	/* stack size = 15 */
 342               	.L__stack_usage = 15
 343 0022 8091 0000 		lds r24,flagONN
 344 0026 9091 0000 		lds r25,flagONN+1
 345 002a 892B      		or r24,r25
 346 002c 01F4      		brne .L27
 347               	.L25:
 348 002e 8091 0000 		lds r24,flagOFF
 349 0032 9091 0000 		lds r25,flagOFF+1
 350 0036 892B      		or r24,r25
 351 0038 01F4      		brne .L28
 352               	.L24:
 353               	/* epilogue start */
 354 003a FF91      		pop r31
 355 003c EF91      		pop r30
 356 003e BF91      		pop r27
 357 0040 AF91      		pop r26
 358 0042 9F91      		pop r25
 359 0044 8F91      		pop r24
GAS LISTING C:\Users\letic\AppData\Local\Temp\ccreX2PD.s 			page 7


 360 0046 7F91      		pop r23
 361 0048 6F91      		pop r22
 362 004a 5F91      		pop r21
 363 004c 4F91      		pop r20
 364 004e 3F91      		pop r19
 365 0050 2F91      		pop r18
 366 0052 0F90      		pop r0
 367 0054 0FBE      		out __SREG__,r0
 368 0056 0F90      		pop r0
 369 0058 1F90      		pop r1
 370 005a 1895      		reti
 371               	.L27:
 372 005c 80E0      		ldi r24,lo8(.LC1)
 373 005e 90E0      		ldi r25,hi8(.LC1)
 374 0060 0E94 0000 		call _Z10uartStringPKc
 375 0064 1092 0000 		sts flagONN+1,__zero_reg__
 376 0068 1092 0000 		sts flagONN,__zero_reg__
 377 006c 80E0      		ldi r24,0
 378 006e 0E94 0000 		call _Z9uartIntTxh
 379 0072 00C0      		rjmp .L25
 380               	.L28:
 381 0074 80E0      		ldi r24,lo8(.LC2)
 382 0076 90E0      		ldi r25,hi8(.LC2)
 383 0078 0E94 0000 		call _Z10uartStringPKc
 384 007c 1092 0000 		sts flagOFF+1,__zero_reg__
 385 0080 1092 0000 		sts flagOFF,__zero_reg__
 386 0084 80E0      		ldi r24,0
 387 0086 0E94 0000 		call _Z9uartIntTxh
 388 008a 00C0      		rjmp .L24
 390               	.global	flagONN
 391               		.section	.bss.flagONN,"aw",@nobits
 394               	flagONN:
 395 0000 0000      		.zero	2
 396               	.global	flagOFF
 397               		.section	.bss.flagOFF,"aw",@nobits
 400               	flagOFF:
 401 0000 0000      		.zero	2
 402               		.ident	"GCC: (GNU) 12.1.0"
 403               	.global __do_copy_data
 404               	.global __do_clear_bss
GAS LISTING C:\Users\letic\AppData\Local\Temp\ccreX2PD.s 			page 8


DEFINED SYMBOLS
                            *ABS*:0000000000000000 main.cpp
C:\Users\letic\AppData\Local\Temp\ccreX2PD.s:2      *ABS*:000000000000003e __SP_H__
C:\Users\letic\AppData\Local\Temp\ccreX2PD.s:3      *ABS*:000000000000003d __SP_L__
C:\Users\letic\AppData\Local\Temp\ccreX2PD.s:4      *ABS*:000000000000003f __SREG__
C:\Users\letic\AppData\Local\Temp\ccreX2PD.s:5      *ABS*:0000000000000000 __tmp_reg__
C:\Users\letic\AppData\Local\Temp\ccreX2PD.s:6      *ABS*:0000000000000001 __zero_reg__
C:\Users\letic\AppData\Local\Temp\ccreX2PD.s:11     .text._Z7getTickv:0000000000000000 _Z7getTickv
C:\Users\letic\AppData\Local\Temp\ccreX2PD.s:25     .text._Z9uartBeginmm:0000000000000000 _Z9uartBeginmm
C:\Users\letic\AppData\Local\Temp\ccreX2PD.s:89     .text._Z8uartTxOkv:0000000000000000 _Z8uartTxOkv
C:\Users\letic\AppData\Local\Temp\ccreX2PD.s:102    .text._Z6uartTxh:0000000000000000 _Z6uartTxh
C:\Users\letic\AppData\Local\Temp\ccreX2PD.s:114    .text._Z10uartStringPKc:0000000000000000 _Z10uartStringPKc
C:\Users\letic\AppData\Local\Temp\ccreX2PD.s:139    .text._Z8uartRxOkv:0000000000000000 _Z8uartRxOkv
C:\Users\letic\AppData\Local\Temp\ccreX2PD.s:152    .text._Z6uartRxv:0000000000000000 _Z6uartRxv
C:\Users\letic\AppData\Local\Temp\ccreX2PD.s:164    .text._Z9uartIntRxh:0000000000000000 _Z9uartIntRxh
C:\Users\letic\AppData\Local\Temp\ccreX2PD.s:192    .text.main:0000000000000000 main
C:\Users\letic\AppData\Local\Temp\ccreX2PD.s:223    .text._Z9uartIntTxh:0000000000000000 _Z9uartIntTxh
C:\Users\letic\AppData\Local\Temp\ccreX2PD.s:248    .text.__vector_18:0000000000000000 __vector_18
C:\Users\letic\AppData\Local\Temp\ccreX2PD.s:394    .bss.flagONN:0000000000000000 flagONN
C:\Users\letic\AppData\Local\Temp\ccreX2PD.s:400    .bss.flagOFF:0000000000000000 flagOFF
C:\Users\letic\AppData\Local\Temp\ccreX2PD.s:321    .text.__vector_20:0000000000000000 __vector_20
C:\Users\letic\AppData\Local\Temp\ccreX2PD.s:48     .text._Z9uartBeginmm:0000000000000024 .L11
C:\Users\letic\AppData\Local\Temp\ccreX2PD.s:132    .text._Z10uartStringPKc:0000000000000018 .L5
C:\Users\letic\AppData\Local\Temp\ccreX2PD.s:127    .text._Z10uartStringPKc:0000000000000010 .L7
C:\Users\letic\AppData\Local\Temp\ccreX2PD.s:177    .text._Z9uartIntRxh:0000000000000010 .L12
C:\Users\letic\AppData\Local\Temp\ccreX2PD.s:217    .text.main:000000000000002e .L15
C:\Users\letic\AppData\Local\Temp\ccreX2PD.s:236    .text._Z9uartIntTxh:0000000000000010 .L17
C:\Users\letic\AppData\Local\Temp\ccreX2PD.s:294    .text.__vector_18:0000000000000050 .L22
C:\Users\letic\AppData\Local\Temp\ccreX2PD.s:303    .text.__vector_18:0000000000000066 .L23
C:\Users\letic\AppData\Local\Temp\ccreX2PD.s:275    .text.__vector_18:000000000000002e .L19
C:\Users\letic\AppData\Local\Temp\ccreX2PD.s:371    .text.__vector_20:000000000000005c .L27
C:\Users\letic\AppData\Local\Temp\ccreX2PD.s:380    .text.__vector_20:0000000000000074 .L28
C:\Users\letic\AppData\Local\Temp\ccreX2PD.s:347    .text.__vector_20:000000000000002e .L25
C:\Users\letic\AppData\Local\Temp\ccreX2PD.s:352    .text.__vector_20:000000000000003a .L24

UNDEFINED SYMBOLS
__udivmodsi4
__do_copy_data
__do_clear_bss
