GAS LISTING C:\Users\letic\AppData\Local\Temp\ccsEu70A.s 			page 1


   1               		.file	"main.cpp"
   2               	__SP_H__ = 0x3e
   3               	__SP_L__ = 0x3d
   4               	__SREG__ = 0x3f
   5               	__tmp_reg__ = 0
   6               	__zero_reg__ = 1
   7               		.text
   8               		.section	.text._Z7getTickv,"ax",@progbits
   9               		.weak	_Z7getTickv
  11               	_Z7getTickv:
  12               	/* prologue: function */
  13               	/* frame size = 0 */
  14               	/* stack size = 0 */
  15               	.L__stack_usage = 0
  16 0000 60E0      		ldi r22,0
  17 0002 70E0      		ldi r23,0
  18 0004 CB01      		movw r24,r22
  19               	/* epilogue start */
  20 0006 0895      		ret
  22               		.section	.rodata._Z13processarJsonPKc.str1.1,"aMS",@progbits,1
  23               	.LC0:
  24 0000 4C69 6761 		.string	"Ligado"
  24      646F 00
  25               	.LC1:
  26 0007 4465 736C 		.string	"Desligado"
  26      6967 6164 
  26      6F00 
  27               	.LC2:
  28 0011 7B22 4944 		.string	"{\"ID_LED\": %d, \"estado\": %d}"
  28      5F4C 4544 
  28      223A 2025 
  28      642C 2022 
  28      6573 7461 
  29               	.LC3:
  30 002e 4944 2064 		.string	"ID do LED: %d\n"
  30      6F20 4C45 
  30      443A 2025 
  30      640A 00
  31               	.LC4:
  32 003d 4573 7461 		.string	"Estado do LED: %s\n"
  32      646F 2064 
  32      6F20 4C45 
  32      443A 2025 
  32      730A 00
  33               	.LC5:
  34 0050 4572 726F 		.string	"Erro ao processar JSON"
  34      2061 6F20 
  34      7072 6F63 
  34      6573 7361 
  34      7220 4A53 
  35               		.section	.text._Z13processarJsonPKc,"ax",@progbits
  36               	.global	_Z13processarJsonPKc
  38               	_Z13processarJsonPKc:
  39 0000 CF93      		push r28
  40 0002 DF93      		push r29
  41 0004 00D0      		rcall .
  42 0006 0F92      		push __tmp_reg__
GAS LISTING C:\Users\letic\AppData\Local\Temp\ccsEu70A.s 			page 2


  43 0008 CDB7      		in r28,__SP_L__
  44 000a DEB7      		in r29,__SP_H__
  45               	/* prologue: function */
  46               	/* frame size = 3 */
  47               	/* stack size = 5 */
  48               	.L__stack_usage = 5
  49 000c 9E01      		movw r18,r28
  50 000e 2D5F      		subi r18,-3
  51 0010 3F4F      		sbci r19,-1
  52 0012 3F93      		push r19
  53 0014 2F93      		push r18
  54 0016 2250      		subi r18,2
  55 0018 3109      		sbc r19,__zero_reg__
  56 001a 3F93      		push r19
  57 001c 2F93      		push r18
  58 001e 20E0      		ldi r18,lo8(.LC2)
  59 0020 30E0      		ldi r19,hi8(.LC2)
  60 0022 3F93      		push r19
  61 0024 2F93      		push r18
  62 0026 9F93      		push r25
  63 0028 8F93      		push r24
  64 002a 0E94 0000 		call sscanf
  65 002e 0FB6      		in __tmp_reg__,__SREG__
  66 0030 F894      		cli
  67 0032 DEBF      		out __SP_H__,r29
  68 0034 0FBE      		out __SREG__,__tmp_reg__
  69 0036 CDBF      		out __SP_L__,r28
  70 0038 0297      		sbiw r24,2
  71 003a 01F0      		breq .L7
  72 003c 80E0      		ldi r24,lo8(.LC5)
  73 003e 90E0      		ldi r25,hi8(.LC5)
  74 0040 0E94 0000 		call puts
  75               	.L2:
  76               	/* epilogue start */
  77 0044 0F90      		pop __tmp_reg__
  78 0046 0F90      		pop __tmp_reg__
  79 0048 0F90      		pop __tmp_reg__
  80 004a DF91      		pop r29
  81 004c CF91      		pop r28
  82 004e 0895      		ret
  83               	.L7:
  84 0050 8A81      		ldd r24,Y+2
  85 0052 8F93      		push r24
  86 0054 8981      		ldd r24,Y+1
  87 0056 8F93      		push r24
  88 0058 80E0      		ldi r24,lo8(.LC3)
  89 005a 90E0      		ldi r25,hi8(.LC3)
  90 005c 9F93      		push r25
  91 005e 8F93      		push r24
  92 0060 0E94 0000 		call printf
  93 0064 0F90      		pop __tmp_reg__
  94 0066 0F90      		pop __tmp_reg__
  95 0068 0F90      		pop __tmp_reg__
  96 006a 0F90      		pop __tmp_reg__
  97 006c 8B81      		ldd r24,Y+3
  98 006e 8823      		tst r24
  99 0070 01F0      		breq .L6
GAS LISTING C:\Users\letic\AppData\Local\Temp\ccsEu70A.s 			page 3


 100 0072 80E0      		ldi r24,lo8(.LC0)
 101 0074 90E0      		ldi r25,hi8(.LC0)
 102               	.L4:
 103 0076 9F93      		push r25
 104 0078 8F93      		push r24
 105 007a 80E0      		ldi r24,lo8(.LC4)
 106 007c 90E0      		ldi r25,hi8(.LC4)
 107 007e 9F93      		push r25
 108 0080 8F93      		push r24
 109 0082 0E94 0000 		call printf
 110 0086 0F90      		pop __tmp_reg__
 111 0088 0F90      		pop __tmp_reg__
 112 008a 0F90      		pop __tmp_reg__
 113 008c 0F90      		pop __tmp_reg__
 114 008e 8981      		ldd r24,Y+1
 115 0090 9A81      		ldd r25,Y+2
 116 0092 0197      		sbiw r24,1
 117 0094 01F4      		brne .L2
 118 0096 219A      		sbi 0x4,1
 119 0098 299A      		sbi 0x5,1
 120 009a 00C0      		rjmp .L2
 121               	.L6:
 122 009c 80E0      		ldi r24,lo8(.LC1)
 123 009e 90E0      		ldi r25,hi8(.LC1)
 124 00a0 00C0      		rjmp .L4
 126               		.section	.text.main,"ax",@progbits
 127               	.global	main
 129               	main:
 130               	/* prologue: function */
 131               	/* frame size = 0 */
 132               	/* stack size = 0 */
 133               	.L__stack_usage = 0
 134 0000 40E8      		ldi r20,lo8(-128)
 135 0002 55E2      		ldi r21,lo8(37)
 136 0004 60E0      		ldi r22,0
 137 0006 70E0      		ldi r23,0
 138 0008 80E0      		ldi r24,lo8(usart0)
 139 000a 90E0      		ldi r25,hi8(usart0)
 140 000c 0E94 0000 		call _ZN6Usart011setBaudRateENS_8BaudRateE
 141 0010 E1EC      		ldi r30,lo8(-63)
 142 0012 F0E0      		ldi r31,0
 143 0014 8081      		ld r24,Z
 144 0016 8061      		ori r24,lo8(16)
 145 0018 8083      		st Z,r24
 146 001a 8081      		ld r24,Z
 147 001c 8860      		ori r24,lo8(8)
 148 001e 8083      		st Z,r24
 149 0020 8081      		ld r24,Z
 150 0022 8068      		ori r24,lo8(-128)
 151 0024 8083      		st Z,r24
 152 0026 80E0      		ldi r24,lo8(usart0)
 153 0028 90E0      		ldi r25,hi8(usart0)
 154 002a 0E94 0000 		call _ZN6Usart04initEv
 155               	/* #APP */
 156               	 ;  47 "main.cpp" 1
 157 002e 7894      		sei
 158               	 ;  0 "" 2
GAS LISTING C:\Users\letic\AppData\Local\Temp\ccsEu70A.s 			page 4


 159               	/* #NOAPP */
 160 0030 00C0      		rjmp .L9
 161               	.L10:
 162 0032 1092 0000 		sts receivedFlag,__zero_reg__
 163               	.L9:
 164 0036 8091 0000 		lds r24,receivedFlag
 165 003a 8823      		tst r24
 166 003c 01F0      		breq .L9
 167 003e 8091 0000 		lds r24,receivedStatus
 168 0042 8111      		cpse r24,__zero_reg__
 169 0044 00C0      		rjmp .L10
 170 0046 80E0      		ldi r24,lo8(receivedData)
 171 0048 90E0      		ldi r25,hi8(receivedData)
 172 004a 0E94 0000 		call _Z13processarJsonPKc
 173 004e 00C0      		rjmp .L10
 175               		.section	.text._Z30usartReceptionCompleteCallbackv,"ax",@progbits
 176               	.global	_Z30usartReceptionCompleteCallbackv
 178               	_Z30usartReceptionCompleteCallbackv:
 179               	/* prologue: function */
 180               	/* frame size = 0 */
 181               	/* stack size = 0 */
 182               	.L__stack_usage = 0
 183 0000 60E0      		ldi r22,lo8(receivedStatus)
 184 0002 70E0      		ldi r23,hi8(receivedStatus)
 185 0004 80E0      		ldi r24,lo8(usart0)
 186 0006 90E0      		ldi r25,hi8(usart0)
 187 0008 0E94 0000 		call _ZN6Usart018getReceptionStatusEPNS_14ReceptionErrorE
 188 000c 8091 C600 		lds r24,198
 189 0010 8093 0000 		sts receivedData,r24
 190 0014 81E0      		ldi r24,lo8(1)
 191 0016 8093 0000 		sts receivedFlag,r24
 192 001a 8091 0000 		lds r24,receivedData
 193 001e 8C34      		cpi r24,lo8(76)
 194 0020 01F0      		breq .L15
 195               	.L13:
 196               	/* epilogue start */
 197 0022 0895      		ret
 198               	.L15:
 199 0024 219A      		sbi 0x4,1
 200 0026 299A      		sbi 0x5,1
 201 0028 00C0      		rjmp .L13
 203               	.global	ledInfo
 204               		.section	.bss.ledInfo,"aw",@nobits
 207               	ledInfo:
 208 0000 0000 00   		.zero	3
 209               	.global	receivedFlag
 210               		.section	.bss.receivedFlag,"aw",@nobits
 213               	receivedFlag:
 214 0000 00        		.zero	1
 215               	.global	receivedStatus
 216               		.section	.bss.receivedStatus,"aw",@nobits
 219               	receivedStatus:
 220 0000 00        		.zero	1
 221               	.global	receivedData
 222               		.section	.bss.receivedData,"aw",@nobits
 225               	receivedData:
 226 0000 00        		.zero	1
GAS LISTING C:\Users\letic\AppData\Local\Temp\ccsEu70A.s 			page 5


 227               		.ident	"GCC: (GNU) 12.1.0"
 228               	.global __do_copy_data
 229               	.global __do_clear_bss
GAS LISTING C:\Users\letic\AppData\Local\Temp\ccsEu70A.s 			page 6


DEFINED SYMBOLS
                            *ABS*:0000000000000000 main.cpp
C:\Users\letic\AppData\Local\Temp\ccsEu70A.s:2      *ABS*:000000000000003e __SP_H__
C:\Users\letic\AppData\Local\Temp\ccsEu70A.s:3      *ABS*:000000000000003d __SP_L__
C:\Users\letic\AppData\Local\Temp\ccsEu70A.s:4      *ABS*:000000000000003f __SREG__
C:\Users\letic\AppData\Local\Temp\ccsEu70A.s:5      *ABS*:0000000000000000 __tmp_reg__
C:\Users\letic\AppData\Local\Temp\ccsEu70A.s:6      *ABS*:0000000000000001 __zero_reg__
C:\Users\letic\AppData\Local\Temp\ccsEu70A.s:11     .text._Z7getTickv:0000000000000000 _Z7getTickv
C:\Users\letic\AppData\Local\Temp\ccsEu70A.s:38     .text._Z13processarJsonPKc:0000000000000000 _Z13processarJsonPKc
C:\Users\letic\AppData\Local\Temp\ccsEu70A.s:41     .text._Z13processarJsonPKc:0000000000000006 L0
C:\Users\letic\AppData\Local\Temp\ccsEu70A.s:129    .text.main:0000000000000000 main
C:\Users\letic\AppData\Local\Temp\ccsEu70A.s:213    .bss.receivedFlag:0000000000000000 receivedFlag
C:\Users\letic\AppData\Local\Temp\ccsEu70A.s:219    .bss.receivedStatus:0000000000000000 receivedStatus
C:\Users\letic\AppData\Local\Temp\ccsEu70A.s:225    .bss.receivedData:0000000000000000 receivedData
C:\Users\letic\AppData\Local\Temp\ccsEu70A.s:178    .text._Z30usartReceptionCompleteCallbackv:0000000000000000 _Z30usartReceptionCompleteCallbackv
C:\Users\letic\AppData\Local\Temp\ccsEu70A.s:207    .bss.ledInfo:0000000000000000 ledInfo
C:\Users\letic\AppData\Local\Temp\ccsEu70A.s:83     .text._Z13processarJsonPKc:0000000000000050 .L7
C:\Users\letic\AppData\Local\Temp\ccsEu70A.s:121    .text._Z13processarJsonPKc:000000000000009c .L6
C:\Users\letic\AppData\Local\Temp\ccsEu70A.s:75     .text._Z13processarJsonPKc:0000000000000044 .L2
C:\Users\letic\AppData\Local\Temp\ccsEu70A.s:102    .text._Z13processarJsonPKc:0000000000000076 .L4
C:\Users\letic\AppData\Local\Temp\ccsEu70A.s:163    .text.main:0000000000000036 .L9
C:\Users\letic\AppData\Local\Temp\ccsEu70A.s:161    .text.main:0000000000000032 .L10
C:\Users\letic\AppData\Local\Temp\ccsEu70A.s:198    .text._Z30usartReceptionCompleteCallbackv:0000000000000024 .L15
C:\Users\letic\AppData\Local\Temp\ccsEu70A.s:195    .text._Z30usartReceptionCompleteCallbackv:0000000000000022 .L13

UNDEFINED SYMBOLS
sscanf
puts
printf
usart0
_ZN6Usart011setBaudRateENS_8BaudRateE
_ZN6Usart04initEv
_ZN6Usart018getReceptionStatusEPNS_14ReceptionErrorE
__do_copy_data
__do_clear_bss
